((lp0
(I0
I0
tp1
a(I0
I0
tp2
a(I0
I0
tp3
a(I0
I0
tp4
a(I0
I0
tp5
a(I0
I0
tp6
a(I0
I0
tp7
a(I0
I0
tp8
a(I0
I0
tp9
a(I0
I0
tp10
a(I0
I0
tp11
a(I0
I0
tp12
a(I0
I0
tp13
a(I0
I0
tp14
a(I0
I0
tp15
a(I0
I0
tp16
a(I0
I0
tp17
a(I0
I0
tp18
a(I0
I0
tp19
a(I0
I0
tp20
a(lp21
(g1
g2
tp22
a(g1
g3
tp23
a(g1
g4
tp24
a(g1
g5
tp25
a(g1
g6
tp26
a(g1
g7
tp27
a(g1
g8
tp28
a(g1
g9
tp29
a(g1
g10
tp30
a(g1
g11
tp31
a(g1
g12
tp32
a(g1
g13
tp33
a(g1
g14
tp34
a(g1
g15
tp35
a(g1
g16
tp36
a(g1
g17
tp37
a(g1
g18
tp38
a(g1
g19
tp39
a(g1
g20
tp40
a(g2
g1
tp41
a(g2
g3
tp42
a(g2
g4
tp43
a(g2
g5
tp44
a(g2
g6
tp45
a(g2
g7
tp46
a(g2
g8
tp47
a(g2
g9
tp48
a(g2
g10
tp49
a(g2
g11
tp50
a(g2
g12
tp51
a(g2
g13
tp52
a(g2
g14
tp53
a(g2
g15
tp54
a(g2
g16
tp55
a(g2
g17
tp56
a(g2
g18
tp57
a(g2
g19
tp58
a(g2
g20
tp59
a(g3
g1
tp60
a(g3
g2
tp61
a(g3
g4
tp62
a(g3
g5
tp63
a(g3
g6
tp64
a(g3
g7
tp65
a(g3
g8
tp66
a(g3
g9
tp67
a(g3
g10
tp68
a(g3
g11
tp69
a(g3
g12
tp70
a(g3
g13
tp71
a(g3
g14
tp72
a(g3
g15
tp73
a(g3
g16
tp74
a(g3
g17
tp75
a(g3
g18
tp76
a(g3
g19
tp77
a(g3
g20
tp78
a(g4
g1
tp79
a(g4
g2
tp80
a(g4
g3
tp81
a(g4
g5
tp82
a(g4
g6
tp83
a(g4
g7
tp84
a(g4
g8
tp85
a(g4
g9
tp86
a(g4
g10
tp87
a(g4
g11
tp88
a(g4
g12
tp89
a(g4
g13
tp90
a(g4
g14
tp91
a(g4
g15
tp92
a(g4
g16
tp93
a(g4
g17
tp94
a(g4
g18
tp95
a(g4
g19
tp96
a(g4
g20
tp97
a(g5
g1
tp98
a(g5
g2
tp99
a(g5
g3
tp100
a(g5
g4
tp101
a(g5
g6
tp102
a(g5
g7
tp103
a(g5
g8
tp104
a(g5
g9
tp105
a(g5
g10
tp106
a(g5
g11
tp107
a(g5
g12
tp108
a(g5
g13
tp109
a(g5
g14
tp110
a(g5
g15
tp111
a(g5
g16
tp112
a(g5
g17
tp113
a(g5
g18
tp114
a(g5
g19
tp115
a(g5
g20
tp116
a(g6
g1
tp117
a(g6
g2
tp118
a(g6
g3
tp119
a(g6
g4
tp120
a(g6
g5
tp121
a(g6
g7
tp122
a(g6
g8
tp123
a(g6
g9
tp124
a(g6
g10
tp125
a(g6
g11
tp126
a(g6
g12
tp127
a(g6
g13
tp128
a(g6
g14
tp129
a(g6
g15
tp130
a(g6
g16
tp131
a(g6
g17
tp132
a(g6
g18
tp133
a(g6
g19
tp134
a(g6
g20
tp135
a(g7
g1
tp136
a(g7
g2
tp137
a(g7
g3
tp138
a(g7
g4
tp139
a(g7
g5
tp140
a(g7
g6
tp141
a(g7
g8
tp142
a(g7
g9
tp143
a(g7
g10
tp144
a(g7
g11
tp145
a(g7
g12
tp146
a(g7
g13
tp147
a(g7
g14
tp148
a(g7
g15
tp149
a(g7
g16
tp150
a(g7
g17
tp151
a(g7
g18
tp152
a(g7
g19
tp153
a(g7
g20
tp154
a(g8
g1
tp155
a(g8
g2
tp156
a(g8
g3
tp157
a(g8
g4
tp158
a(g8
g5
tp159
a(g8
g6
tp160
a(g8
g7
tp161
a(g8
g9
tp162
a(g8
g10
tp163
a(g8
g11
tp164
a(g8
g12
tp165
a(g8
g13
tp166
a(g8
g14
tp167
a(g8
g15
tp168
a(g8
g16
tp169
a(g8
g17
tp170
a(g8
g18
tp171
a(g8
g19
tp172
a(g8
g20
tp173
a(g9
g1
tp174
a(g9
g2
tp175
a(g9
g3
tp176
a(g9
g4
tp177
a(g9
g5
tp178
a(g9
g6
tp179
a(g9
g7
tp180
a(g9
g8
tp181
a(g9
g10
tp182
a(g9
g11
tp183
a(g9
g12
tp184
a(g9
g13
tp185
a(g9
g14
tp186
a(g9
g15
tp187
a(g9
g16
tp188
a(g9
g17
tp189
a(g9
g18
tp190
a(g9
g19
tp191
a(g9
g20
tp192
a(g10
g1
tp193
a(g10
g2
tp194
a(g10
g3
tp195
a(g10
g4
tp196
a(g10
g5
tp197
a(g10
g6
tp198
a(g10
g7
tp199
a(g10
g8
tp200
a(g10
g9
tp201
a(g10
g11
tp202
a(g10
g12
tp203
a(g10
g13
tp204
a(g10
g14
tp205
a(g10
g15
tp206
a(g10
g16
tp207
a(g10
g17
tp208
a(g10
g18
tp209
a(g10
g19
tp210
a(g10
g20
tp211
a(g11
g1
tp212
a(g11
g2
tp213
a(g11
g3
tp214
a(g11
g4
tp215
a(g11
g5
tp216
a(g11
g6
tp217
a(g11
g7
tp218
a(g11
g8
tp219
a(g11
g9
tp220
a(g11
g10
tp221
a(g11
g12
tp222
a(g11
g13
tp223
a(g11
g14
tp224
a(g11
g15
tp225
a(g11
g16
tp226
a(g11
g17
tp227
a(g11
g18
tp228
a(g11
g19
tp229
a(g11
g20
tp230
a(g12
g1
tp231
a(g12
g2
tp232
a(g12
g3
tp233
a(g12
g4
tp234
a(g12
g5
tp235
a(g12
g6
tp236
a(g12
g7
tp237
a(g12
g8
tp238
a(g12
g9
tp239
a(g12
g10
tp240
a(g12
g11
tp241
a(g12
g13
tp242
a(g12
g14
tp243
a(g12
g15
tp244
a(g12
g16
tp245
a(g12
g17
tp246
a(g12
g18
tp247
a(g12
g19
tp248
a(g12
g20
tp249
a(g13
g1
tp250
a(g13
g2
tp251
a(g13
g3
tp252
a(g13
g4
tp253
a(g13
g5
tp254
a(g13
g6
tp255
a(g13
g7
tp256
a(g13
g8
tp257
a(g13
g9
tp258
a(g13
g10
tp259
a(g13
g11
tp260
a(g13
g12
tp261
a(g13
g14
tp262
a(g13
g15
tp263
a(g13
g16
tp264
a(g13
g17
tp265
a(g13
g18
tp266
a(g13
g19
tp267
a(g13
g20
tp268
a(g14
g1
tp269
a(g14
g2
tp270
a(g14
g3
tp271
a(g14
g4
tp272
a(g14
g5
tp273
a(g14
g6
tp274
a(g14
g7
tp275
a(g14
g8
tp276
a(g14
g9
tp277
a(g14
g10
tp278
a(g14
g11
tp279
a(g14
g12
tp280
a(g14
g13
tp281
a(g14
g15
tp282
a(g14
g16
tp283
a(g14
g17
tp284
a(g14
g18
tp285
a(g14
g19
tp286
a(g14
g20
tp287
a(g15
g1
tp288
a(g15
g2
tp289
a(g15
g3
tp290
a(g15
g4
tp291
a(g15
g5
tp292
a(g15
g6
tp293
a(g15
g7
tp294
a(g15
g8
tp295
a(g15
g9
tp296
a(g15
g10
tp297
a(g15
g11
tp298
a(g15
g12
tp299
a(g15
g13
tp300
a(g15
g14
tp301
a(g15
g16
tp302
a(g15
g17
tp303
a(g15
g18
tp304
a(g15
g19
tp305
a(g15
g20
tp306
a(g16
g1
tp307
a(g16
g2
tp308
a(g16
g3
tp309
a(g16
g4
tp310
a(g16
g5
tp311
a(g16
g6
tp312
a(g16
g7
tp313
a(g16
g8
tp314
a(g16
g9
tp315
a(g16
g10
tp316
a(g16
g11
tp317
a(g16
g12
tp318
a(g16
g13
tp319
a(g16
g14
tp320
a(g16
g15
tp321
a(g16
g17
tp322
a(g16
g18
tp323
a(g16
g19
tp324
a(g16
g20
tp325
a(g17
g1
tp326
a(g17
g2
tp327
a(g17
g3
tp328
a(g17
g4
tp329
a(g17
g5
tp330
a(g17
g6
tp331
a(g17
g7
tp332
a(g17
g8
tp333
a(g17
g9
tp334
a(g17
g10
tp335
a(g17
g11
tp336
a(g17
g12
tp337
a(g17
g13
tp338
a(g17
g14
tp339
a(g17
g15
tp340
a(g17
g16
tp341
a(g17
g18
tp342
a(g17
g19
tp343
a(g17
g20
tp344
a(g18
g1
tp345
a(g18
g2
tp346
a(g18
g3
tp347
a(g18
g4
tp348
a(g18
g5
tp349
a(g18
g6
tp350
a(g18
g7
tp351
a(g18
g8
tp352
a(g18
g9
tp353
a(g18
g10
tp354
a(g18
g11
tp355
a(g18
g12
tp356
a(g18
g13
tp357
a(g18
g14
tp358
a(g18
g15
tp359
a(g18
g16
tp360
a(g18
g17
tp361
a(g18
g19
tp362
a(g18
g20
tp363
a(g19
g1
tp364
a(g19
g2
tp365
a(g19
g3
tp366
a(g19
g4
tp367
a(g19
g5
tp368
a(g19
g6
tp369
a(g19
g7
tp370
a(g19
g8
tp371
a(g19
g9
tp372
a(g19
g10
tp373
a(g19
g11
tp374
a(g19
g12
tp375
a(g19
g13
tp376
a(g19
g14
tp377
a(g19
g15
tp378
a(g19
g16
tp379
a(g19
g17
tp380
a(g19
g18
tp381
a(g19
g20
tp382
a(g20
g1
tp383
a(g20
g2
tp384
a(g20
g3
tp385
a(g20
g4
tp386
a(g20
g5
tp387
a(g20
g6
tp388
a(g20
g7
tp389
a(g20
g8
tp390
a(g20
g9
tp391
a(g20
g10
tp392
a(g20
g11
tp393
a(g20
g12
tp394
a(g20
g13
tp395
a(g20
g14
tp396
a(g20
g15
tp397
a(g20
g16
tp398
a(g20
g17
tp399
a(g20
g18
tp400
a(g20
g19
tp401
a(lp402
cnumpy.core.multiarray
scalar
p403
(cnumpy
dtype
p404
(S'f8'
p405
I0
I1
tp406
Rp407
(I3
S'<'
p408
NNNI-1
I-1
I0
tp409
bS'\xedX\x810\xd2\x8ee?'
p410
tp411
Rp412
ag403
(g407
S'\xedX\x810\xd2\x8ee?'
p413
tp414
Rp415
ag403
(g407
S'\xedX\x810\xd2\x8ee?'
p416
tp417
Rp418
ag403
(g407
S'\xedX\x810\xd2\x8ee?'
p419
tp420
Rp421
ag403
(g407
S'\xedX\x810\xd2\x8ee?'
p422
tp423
Rp424
ag403
(g407
S'\xedX\x810\xd2\x8ee?'
p425
tp426
Rp427
ag403
(g407
S'\xedX\x810\xd2\x8ee?'
p428
tp429
Rp430
ag403
(g407
S'\xedX\x810\xd2\x8ee?'
p431
tp432
Rp433
ag403
(g407
S'\xedX\x810\xd2\x8ee?'
p434
tp435
Rp436
ag403
(g407
S'\xedX\x810\xd2\x8ee?'
p437
tp438
Rp439
ag403
(g407
S'\xedX\x810\xd2\x8ee?'
p440
tp441
Rp442
ag403
(g407
S'\xedX\x810\xd2\x8ee?'
p443
tp444
Rp445
ag403
(g407
S'\xedX\x810\xd2\x8ee?'
p446
tp447
Rp448
ag403
(g407
S'\xedX\x810\xd2\x8ee?'
p449
tp450
Rp451
ag403
(g407
S'\xedX\x810\xd2\x8ee?'
p452
tp453
Rp454
ag403
(g407
S'\xedX\x810\xd2\x8ee?'
p455
tp456
Rp457
ag403
(g407
S'\xedX\x810\xd2\x8ee?'
p458
tp459
Rp460
ag403
(g407
S'\xedX\x810\xd2\x8ee?'
p461
tp462
Rp463
ag403
(g407
S'\xedX\x810\xd2\x8ee?'
p464
tp465
Rp466
ag403
(g407
S'\xedX\x810\xd2\x8ee?'
p467
tp468
Rp469
ag403
(g407
S'\xedX\x810\xd2\x8ee?'
p470
tp471
Rp472
ag403
(g407
S'\xedX\x810\xd2\x8ee?'
p473
tp474
Rp475
ag403
(g407
S'\xedX\x810\xd2\x8ee?'
p476
tp477
Rp478
ag403
(g407
S'\xedX\x810\xd2\x8ee?'
p479
tp480
Rp481
ag403
(g407
S'\xedX\x810\xd2\x8ee?'
p482
tp483
Rp484
ag403
(g407
S'\xedX\x810\xd2\x8ee?'
p485
tp486
Rp487
ag403
(g407
S'\xedX\x810\xd2\x8ee?'
p488
tp489
Rp490
ag403
(g407
S'\xedX\x810\xd2\x8ee?'
p491
tp492
Rp493
ag403
(g407
S'\xedX\x810\xd2\x8ee?'
p494
tp495
Rp496
ag403
(g407
S'\xedX\x810\xd2\x8ee?'
p497
tp498
Rp499
ag403
(g407
S'\xedX\x810\xd2\x8ee?'
p500
tp501
Rp502
ag403
(g407
S'\xedX\x810\xd2\x8ee?'
p503
tp504
Rp505
ag403
(g407
S'\xedX\x810\xd2\x8ee?'
p506
tp507
Rp508
ag403
(g407
S'\xedX\x810\xd2\x8ee?'
p509
tp510
Rp511
ag403
(g407
S'\xedX\x810\xd2\x8ee?'
p512
tp513
Rp514
ag403
(g407
S'\xedX\x810\xd2\x8ee?'
p515
tp516
Rp517
ag403
(g407
S'\xedX\x810\xd2\x8ee?'
p518
tp519
Rp520
ag403
(g407
S'\xedX\x810\xd2\x8ee?'
p521
tp522
Rp523
ag403
(g407
S'\xedX\x810\xd2\x8ee?'
p524
tp525
Rp526
ag403
(g407
S'\xedX\x810\xd2\x8ee?'
p527
tp528
Rp529
ag403
(g407
S'\xedX\x810\xd2\x8ee?'
p530
tp531
Rp532
ag403
(g407
S'\xedX\x810\xd2\x8ee?'
p533
tp534
Rp535
ag403
(g407
S'\xedX\x810\xd2\x8ee?'
p536
tp537
Rp538
ag403
(g407
S'\xedX\x810\xd2\x8ee?'
p539
tp540
Rp541
ag403
(g407
S'\xedX\x810\xd2\x8ee?'
p542
tp543
Rp544
ag403
(g407
S'\xedX\x810\xd2\x8ee?'
p545
tp546
Rp547
ag403
(g407
S'\xedX\x810\xd2\x8ee?'
p548
tp549
Rp550
ag403
(g407
S'\xedX\x810\xd2\x8ee?'
p551
tp552
Rp553
ag403
(g407
S'\xedX\x810\xd2\x8ee?'
p554
tp555
Rp556
ag403
(g407
S'\xedX\x810\xd2\x8ee?'
p557
tp558
Rp559
ag403
(g407
S'\xedX\x810\xd2\x8ee?'
p560
tp561
Rp562
ag403
(g407
S'\xedX\x810\xd2\x8ee?'
p563
tp564
Rp565
ag403
(g407
S'\xedX\x810\xd2\x8ee?'
p566
tp567
Rp568
ag403
(g407
S'\xedX\x810\xd2\x8ee?'
p569
tp570
Rp571
ag403
(g407
S'\xedX\x810\xd2\x8ee?'
p572
tp573
Rp574
ag403
(g407
S'\xedX\x810\xd2\x8ee?'
p575
tp576
Rp577
ag403
(g407
S'\xedX\x810\xd2\x8ee?'
p578
tp579
Rp580
ag403
(g407
S'\xedX\x810\xd2\x8ee?'
p581
tp582
Rp583
ag403
(g407
S'\xedX\x810\xd2\x8ee?'
p584
tp585
Rp586
ag403
(g407
S'\xedX\x810\xd2\x8ee?'
p587
tp588
Rp589
ag403
(g407
S'\xedX\x810\xd2\x8ee?'
p590
tp591
Rp592
ag403
(g407
S'\xedX\x810\xd2\x8ee?'
p593
tp594
Rp595
ag403
(g407
S'\xedX\x810\xd2\x8ee?'
p596
tp597
Rp598
ag403
(g407
S'\xedX\x810\xd2\x8ee?'
p599
tp600
Rp601
ag403
(g407
S'\xedX\x810\xd2\x8ee?'
p602
tp603
Rp604
ag403
(g407
S'\xedX\x810\xd2\x8ee?'
p605
tp606
Rp607
ag403
(g407
S'\xedX\x810\xd2\x8ee?'
p608
tp609
Rp610
ag403
(g407
S'\xedX\x810\xd2\x8ee?'
p611
tp612
Rp613
ag403
(g407
S'\xedX\x810\xd2\x8ee?'
p614
tp615
Rp616
ag403
(g407
S'\xedX\x810\xd2\x8ee?'
p617
tp618
Rp619
ag403
(g407
S'\xedX\x810\xd2\x8ee?'
p620
tp621
Rp622
ag403
(g407
S'\xedX\x810\xd2\x8ee?'
p623
tp624
Rp625
ag403
(g407
S'\xedX\x810\xd2\x8ee?'
p626
tp627
Rp628
ag403
(g407
S'\xedX\x810\xd2\x8ee?'
p629
tp630
Rp631
ag403
(g407
S'\xedX\x810\xd2\x8ee?'
p632
tp633
Rp634
ag403
(g407
S'\xedX\x810\xd2\x8ee?'
p635
tp636
Rp637
ag403
(g407
S'\xedX\x810\xd2\x8ee?'
p638
tp639
Rp640
ag403
(g407
S'\xedX\x810\xd2\x8ee?'
p641
tp642
Rp643
ag403
(g407
S'\xedX\x810\xd2\x8ee?'
p644
tp645
Rp646
ag403
(g407
S'\xedX\x810\xd2\x8ee?'
p647
tp648
Rp649
ag403
(g407
S'\xedX\x810\xd2\x8ee?'
p650
tp651
Rp652
ag403
(g407
S'\xedX\x810\xd2\x8ee?'
p653
tp654
Rp655
ag403
(g407
S'\xedX\x810\xd2\x8ee?'
p656
tp657
Rp658
ag403
(g407
S'\xedX\x810\xd2\x8ee?'
p659
tp660
Rp661
ag403
(g407
S'\xedX\x810\xd2\x8ee?'
p662
tp663
Rp664
ag403
(g407
S'\xedX\x810\xd2\x8ee?'
p665
tp666
Rp667
ag403
(g407
S'\xedX\x810\xd2\x8ee?'
p668
tp669
Rp670
ag403
(g407
S'\xedX\x810\xd2\x8ee?'
p671
tp672
Rp673
ag403
(g407
S'\xedX\x810\xd2\x8ee?'
p674
tp675
Rp676
ag403
(g407
S'\xedX\x810\xd2\x8ee?'
p677
tp678
Rp679
ag403
(g407
S'\xedX\x810\xd2\x8ee?'
p680
tp681
Rp682
ag403
(g407
S'\xedX\x810\xd2\x8ee?'
p683
tp684
Rp685
ag403
(g407
S'\xedX\x810\xd2\x8ee?'
p686
tp687
Rp688
ag403
(g407
S'\xedX\x810\xd2\x8ee?'
p689
tp690
Rp691
ag403
(g407
S'\xedX\x810\xd2\x8ee?'
p692
tp693
Rp694
ag403
(g407
S'\xedX\x810\xd2\x8ee?'
p695
tp696
Rp697
ag403
(g407
S'\xedX\x810\xd2\x8ee?'
p698
tp699
Rp700
ag403
(g407
S'\xedX\x810\xd2\x8ee?'
p701
tp702
Rp703
ag403
(g407
S'\xedX\x810\xd2\x8ee?'
p704
tp705
Rp706
ag403
(g407
S'\xedX\x810\xd2\x8ee?'
p707
tp708
Rp709
ag403
(g407
S'\xedX\x810\xd2\x8ee?'
p710
tp711
Rp712
ag403
(g407
S'\xedX\x810\xd2\x8ee?'
p713
tp714
Rp715
ag403
(g407
S'\xedX\x810\xd2\x8ee?'
p716
tp717
Rp718
ag403
(g407
S'\xedX\x810\xd2\x8ee?'
p719
tp720
Rp721
ag403
(g407
S'\xedX\x810\xd2\x8ee?'
p722
tp723
Rp724
ag403
(g407
S'\xedX\x810\xd2\x8ee?'
p725
tp726
Rp727
ag403
(g407
S'\xedX\x810\xd2\x8ee?'
p728
tp729
Rp730
ag403
(g407
S'\xedX\x810\xd2\x8ee?'
p731
tp732
Rp733
ag403
(g407
S'\xedX\x810\xd2\x8ee?'
p734
tp735
Rp736
ag403
(g407
S'\xedX\x810\xd2\x8ee?'
p737
tp738
Rp739
ag403
(g407
S'\xedX\x810\xd2\x8ee?'
p740
tp741
Rp742
ag403
(g407
S'\xedX\x810\xd2\x8ee?'
p743
tp744
Rp745
ag403
(g407
S'\xedX\x810\xd2\x8ee?'
p746
tp747
Rp748
ag403
(g407
S'\xedX\x810\xd2\x8ee?'
p749
tp750
Rp751
ag403
(g407
S'\xedX\x810\xd2\x8ee?'
p752
tp753
Rp754
ag403
(g407
S'\xedX\x810\xd2\x8ee?'
p755
tp756
Rp757
ag403
(g407
S'\xedX\x810\xd2\x8ee?'
p758
tp759
Rp760
ag403
(g407
S'\xedX\x810\xd2\x8ee?'
p761
tp762
Rp763
ag403
(g407
S'\xedX\x810\xd2\x8ee?'
p764
tp765
Rp766
ag403
(g407
S'\xedX\x810\xd2\x8ee?'
p767
tp768
Rp769
ag403
(g407
S'\xedX\x810\xd2\x8ee?'
p770
tp771
Rp772
ag403
(g407
S'\xedX\x810\xd2\x8ee?'
p773
tp774
Rp775
ag403
(g407
S'\xedX\x810\xd2\x8ee?'
p776
tp777
Rp778
ag403
(g407
S'\xedX\x810\xd2\x8ee?'
p779
tp780
Rp781
ag403
(g407
S'\xedX\x810\xd2\x8ee?'
p782
tp783
Rp784
ag403
(g407
S'\xedX\x810\xd2\x8ee?'
p785
tp786
Rp787
ag403
(g407
S'\xedX\x810\xd2\x8ee?'
p788
tp789
Rp790
ag403
(g407
S'\xedX\x810\xd2\x8ee?'
p791
tp792
Rp793
ag403
(g407
S'\xedX\x810\xd2\x8ee?'
p794
tp795
Rp796
ag403
(g407
S'\xedX\x810\xd2\x8ee?'
p797
tp798
Rp799
ag403
(g407
S'\xedX\x810\xd2\x8ee?'
p800
tp801
Rp802
ag403
(g407
S'\xedX\x810\xd2\x8ee?'
p803
tp804
Rp805
ag403
(g407
S'\xedX\x810\xd2\x8ee?'
p806
tp807
Rp808
ag403
(g407
S'\xedX\x810\xd2\x8ee?'
p809
tp810
Rp811
ag403
(g407
S'\xedX\x810\xd2\x8ee?'
p812
tp813
Rp814
ag403
(g407
S'\xedX\x810\xd2\x8ee?'
p815
tp816
Rp817
ag403
(g407
S'\xedX\x810\xd2\x8ee?'
p818
tp819
Rp820
ag403
(g407
S'\xedX\x810\xd2\x8ee?'
p821
tp822
Rp823
ag403
(g407
S'\xedX\x810\xd2\x8ee?'
p824
tp825
Rp826
ag403
(g407
S'\xedX\x810\xd2\x8ee?'
p827
tp828
Rp829
ag403
(g407
S'\xedX\x810\xd2\x8ee?'
p830
tp831
Rp832
ag403
(g407
S'\xedX\x810\xd2\x8ee?'
p833
tp834
Rp835
ag403
(g407
S'\xedX\x810\xd2\x8ee?'
p836
tp837
Rp838
ag403
(g407
S'\xedX\x810\xd2\x8ee?'
p839
tp840
Rp841
ag403
(g407
S'\xedX\x810\xd2\x8ee?'
p842
tp843
Rp844
ag403
(g407
S'\xedX\x810\xd2\x8ee?'
p845
tp846
Rp847
ag403
(g407
S'\xedX\x810\xd2\x8ee?'
p848
tp849
Rp850
ag403
(g407
S'\xedX\x810\xd2\x8ee?'
p851
tp852
Rp853
ag403
(g407
S'\xedX\x810\xd2\x8ee?'
p854
tp855
Rp856
ag403
(g407
S'\xedX\x810\xd2\x8ee?'
p857
tp858
Rp859
ag403
(g407
S'\xedX\x810\xd2\x8ee?'
p860
tp861
Rp862
ag403
(g407
S'\xedX\x810\xd2\x8ee?'
p863
tp864
Rp865
ag403
(g407
S'\xedX\x810\xd2\x8ee?'
p866
tp867
Rp868
ag403
(g407
S'\xedX\x810\xd2\x8ee?'
p869
tp870
Rp871
ag403
(g407
S'\xedX\x810\xd2\x8ee?'
p872
tp873
Rp874
ag403
(g407
S'\xedX\x810\xd2\x8ee?'
p875
tp876
Rp877
ag403
(g407
S'\xedX\x810\xd2\x8ee?'
p878
tp879
Rp880
ag403
(g407
S'\xedX\x810\xd2\x8ee?'
p881
tp882
Rp883
ag403
(g407
S'\xedX\x810\xd2\x8ee?'
p884
tp885
Rp886
ag403
(g407
S'\xedX\x810\xd2\x8ee?'
p887
tp888
Rp889
ag403
(g407
S'\xedX\x810\xd2\x8ee?'
p890
tp891
Rp892
ag403
(g407
S'\xedX\x810\xd2\x8ee?'
p893
tp894
Rp895
ag403
(g407
S'\xedX\x810\xd2\x8ee?'
p896
tp897
Rp898
ag403
(g407
S'\xedX\x810\xd2\x8ee?'
p899
tp900
Rp901
ag403
(g407
S'\xedX\x810\xd2\x8ee?'
p902
tp903
Rp904
ag403
(g407
S'\xedX\x810\xd2\x8ee?'
p905
tp906
Rp907
ag403
(g407
S'\xedX\x810\xd2\x8ee?'
p908
tp909
Rp910
ag403
(g407
S'\xedX\x810\xd2\x8ee?'
p911
tp912
Rp913
ag403
(g407
S'\xedX\x810\xd2\x8ee?'
p914
tp915
Rp916
ag403
(g407
S'\xedX\x810\xd2\x8ee?'
p917
tp918
Rp919
ag403
(g407
S'\xedX\x810\xd2\x8ee?'
p920
tp921
Rp922
ag403
(g407
S'\xedX\x810\xd2\x8ee?'
p923
tp924
Rp925
ag403
(g407
S'\xedX\x810\xd2\x8ee?'
p926
tp927
Rp928
ag403
(g407
S'\xedX\x810\xd2\x8ee?'
p929
tp930
Rp931
ag403
(g407
S'\xedX\x810\xd2\x8ee?'
p932
tp933
Rp934
ag403
(g407
S'\xedX\x810\xd2\x8ee?'
p935
tp936
Rp937
ag403
(g407
S'\xedX\x810\xd2\x8ee?'
p938
tp939
Rp940
ag403
(g407
S'\xedX\x810\xd2\x8ee?'
p941
tp942
Rp943
ag403
(g407
S'\xedX\x810\xd2\x8ee?'
p944
tp945
Rp946
ag403
(g407
S'\xedX\x810\xd2\x8ee?'
p947
tp948
Rp949
ag403
(g407
S'\xedX\x810\xd2\x8ee?'
p950
tp951
Rp952
ag403
(g407
S'\xedX\x810\xd2\x8ee?'
p953
tp954
Rp955
ag403
(g407
S'\xedX\x810\xd2\x8ee?'
p956
tp957
Rp958
ag403
(g407
S'\xedX\x810\xd2\x8ee?'
p959
tp960
Rp961
ag403
(g407
S'\xedX\x810\xd2\x8ee?'
p962
tp963
Rp964
ag403
(g407
S'\xedX\x810\xd2\x8ee?'
p965
tp966
Rp967
ag403
(g407
S'\xedX\x810\xd2\x8ee?'
p968
tp969
Rp970
ag403
(g407
S'\xedX\x810\xd2\x8ee?'
p971
tp972
Rp973
ag403
(g407
S'\xedX\x810\xd2\x8ee?'
p974
tp975
Rp976
ag403
(g407
S'\xedX\x810\xd2\x8ee?'
p977
tp978
Rp979
ag403
(g407
S'\xedX\x810\xd2\x8ee?'
p980
tp981
Rp982
ag403
(g407
S'\xedX\x810\xd2\x8ee?'
p983
tp984
Rp985
ag403
(g407
S'\xedX\x810\xd2\x8ee?'
p986
tp987
Rp988
ag403
(g407
S'\xedX\x810\xd2\x8ee?'
p989
tp990
Rp991
ag403
(g407
S'\xedX\x810\xd2\x8ee?'
p992
tp993
Rp994
ag403
(g407
S'\xedX\x810\xd2\x8ee?'
p995
tp996
Rp997
ag403
(g407
S'\xedX\x810\xd2\x8ee?'
p998
tp999
Rp1000
ag403
(g407
S'\xedX\x810\xd2\x8ee?'
p1001
tp1002
Rp1003
ag403
(g407
S'\xedX\x810\xd2\x8ee?'
p1004
tp1005
Rp1006
ag403
(g407
S'\xedX\x810\xd2\x8ee?'
p1007
tp1008
Rp1009
ag403
(g407
S'\xedX\x810\xd2\x8ee?'
p1010
tp1011
Rp1012
ag403
(g407
S'\xedX\x810\xd2\x8ee?'
p1013
tp1014
Rp1015
ag403
(g407
S'\xedX\x810\xd2\x8ee?'
p1016
tp1017
Rp1018
ag403
(g407
S'\xedX\x810\xd2\x8ee?'
p1019
tp1020
Rp1021
ag403
(g407
S'\xedX\x810\xd2\x8ee?'
p1022
tp1023
Rp1024
ag403
(g407
S'\xedX\x810\xd2\x8ee?'
p1025
tp1026
Rp1027
ag403
(g407
S'\xedX\x810\xd2\x8ee?'
p1028
tp1029
Rp1030
ag403
(g407
S'\xedX\x810\xd2\x8ee?'
p1031
tp1032
Rp1033
ag403
(g407
S'\xedX\x810\xd2\x8ee?'
p1034
tp1035
Rp1036
ag403
(g407
S'\xedX\x810\xd2\x8ee?'
p1037
tp1038
Rp1039
ag403
(g407
S'\xedX\x810\xd2\x8ee?'
p1040
tp1041
Rp1042
ag403
(g407
S'\xedX\x810\xd2\x8ee?'
p1043
tp1044
Rp1045
ag403
(g407
S'\xedX\x810\xd2\x8ee?'
p1046
tp1047
Rp1048
ag403
(g407
S'\xedX\x810\xd2\x8ee?'
p1049
tp1050
Rp1051
ag403
(g407
S'\xedX\x810\xd2\x8ee?'
p1052
tp1053
Rp1054
ag403
(g407
S'\xedX\x810\xd2\x8ee?'
p1055
tp1056
Rp1057
ag403
(g407
S'\xedX\x810\xd2\x8ee?'
p1058
tp1059
Rp1060
ag403
(g407
S'\xedX\x810\xd2\x8ee?'
p1061
tp1062
Rp1063
ag403
(g407
S'\xedX\x810\xd2\x8ee?'
p1064
tp1065
Rp1066
ag403
(g407
S'\xedX\x810\xd2\x8ee?'
p1067
tp1068
Rp1069
ag403
(g407
S'\xedX\x810\xd2\x8ee?'
p1070
tp1071
Rp1072
ag403
(g407
S'\xedX\x810\xd2\x8ee?'
p1073
tp1074
Rp1075
ag403
(g407
S'\xedX\x810\xd2\x8ee?'
p1076
tp1077
Rp1078
ag403
(g407
S'\xedX\x810\xd2\x8ee?'
p1079
tp1080
Rp1081
ag403
(g407
S'\xedX\x810\xd2\x8ee?'
p1082
tp1083
Rp1084
ag403
(g407
S'\xedX\x810\xd2\x8ee?'
p1085
tp1086
Rp1087
ag403
(g407
S'\xedX\x810\xd2\x8ee?'
p1088
tp1089
Rp1090
ag403
(g407
S'\xedX\x810\xd2\x8ee?'
p1091
tp1092
Rp1093
ag403
(g407
S'\xedX\x810\xd2\x8ee?'
p1094
tp1095
Rp1096
ag403
(g407
S'\xedX\x810\xd2\x8ee?'
p1097
tp1098
Rp1099
ag403
(g407
S'\xedX\x810\xd2\x8ee?'
p1100
tp1101
Rp1102
ag403
(g407
S'\xedX\x810\xd2\x8ee?'
p1103
tp1104
Rp1105
ag403
(g407
S'\xedX\x810\xd2\x8ee?'
p1106
tp1107
Rp1108
ag403
(g407
S'\xedX\x810\xd2\x8ee?'
p1109
tp1110
Rp1111
ag403
(g407
S'\xedX\x810\xd2\x8ee?'
p1112
tp1113
Rp1114
ag403
(g407
S'\xedX\x810\xd2\x8ee?'
p1115
tp1116
Rp1117
ag403
(g407
S'\xedX\x810\xd2\x8ee?'
p1118
tp1119
Rp1120
ag403
(g407
S'\xedX\x810\xd2\x8ee?'
p1121
tp1122
Rp1123
ag403
(g407
S'\xedX\x810\xd2\x8ee?'
p1124
tp1125
Rp1126
ag403
(g407
S'\xedX\x810\xd2\x8ee?'
p1127
tp1128
Rp1129
ag403
(g407
S'\xedX\x810\xd2\x8ee?'
p1130
tp1131
Rp1132
ag403
(g407
S'\xedX\x810\xd2\x8ee?'
p1133
tp1134
Rp1135
ag403
(g407
S'\xedX\x810\xd2\x8ee?'
p1136
tp1137
Rp1138
ag403
(g407
S'\xedX\x810\xd2\x8ee?'
p1139
tp1140
Rp1141
ag403
(g407
S'\xedX\x810\xd2\x8ee?'
p1142
tp1143
Rp1144
ag403
(g407
S'\xedX\x810\xd2\x8ee?'
p1145
tp1146
Rp1147
ag403
(g407
S'\xedX\x810\xd2\x8ee?'
p1148
tp1149
Rp1150
ag403
(g407
S'\xedX\x810\xd2\x8ee?'
p1151
tp1152
Rp1153
ag403
(g407
S'\xedX\x810\xd2\x8ee?'
p1154
tp1155
Rp1156
ag403
(g407
S'\xedX\x810\xd2\x8ee?'
p1157
tp1158
Rp1159
ag403
(g407
S'\xedX\x810\xd2\x8ee?'
p1160
tp1161
Rp1162
ag403
(g407
S'\xedX\x810\xd2\x8ee?'
p1163
tp1164
Rp1165
ag403
(g407
S'\xedX\x810\xd2\x8ee?'
p1166
tp1167
Rp1168
ag403
(g407
S'\xedX\x810\xd2\x8ee?'
p1169
tp1170
Rp1171
ag403
(g407
S'\xedX\x810\xd2\x8ee?'
p1172
tp1173
Rp1174
ag403
(g407
S'\xedX\x810\xd2\x8ee?'
p1175
tp1176
Rp1177
ag403
(g407
S'\xedX\x810\xd2\x8ee?'
p1178
tp1179
Rp1180
ag403
(g407
S'\xedX\x810\xd2\x8ee?'
p1181
tp1182
Rp1183
ag403
(g407
S'\xedX\x810\xd2\x8ee?'
p1184
tp1185
Rp1186
ag403
(g407
S'\xedX\x810\xd2\x8ee?'
p1187
tp1188
Rp1189
ag403
(g407
S'\xedX\x810\xd2\x8ee?'
p1190
tp1191
Rp1192
ag403
(g407
S'\xedX\x810\xd2\x8ee?'
p1193
tp1194
Rp1195
ag403
(g407
S'\xedX\x810\xd2\x8ee?'
p1196
tp1197
Rp1198
ag403
(g407
S'\xedX\x810\xd2\x8ee?'
p1199
tp1200
Rp1201
ag403
(g407
S'\xedX\x810\xd2\x8ee?'
p1202
tp1203
Rp1204
ag403
(g407
S'\xedX\x810\xd2\x8ee?'
p1205
tp1206
Rp1207
ag403
(g407
S'\xedX\x810\xd2\x8ee?'
p1208
tp1209
Rp1210
ag403
(g407
S'\xedX\x810\xd2\x8ee?'
p1211
tp1212
Rp1213
ag403
(g407
S'\xedX\x810\xd2\x8ee?'
p1214
tp1215
Rp1216
ag403
(g407
S'\xedX\x810\xd2\x8ee?'
p1217
tp1218
Rp1219
ag403
(g407
S'\xedX\x810\xd2\x8ee?'
p1220
tp1221
Rp1222
ag403
(g407
S'\xedX\x810\xd2\x8ee?'
p1223
tp1224
Rp1225
ag403
(g407
S'\xedX\x810\xd2\x8ee?'
p1226
tp1227
Rp1228
ag403
(g407
S'\xedX\x810\xd2\x8ee?'
p1229
tp1230
Rp1231
ag403
(g407
S'\xedX\x810\xd2\x8ee?'
p1232
tp1233
Rp1234
ag403
(g407
S'\xedX\x810\xd2\x8ee?'
p1235
tp1236
Rp1237
ag403
(g407
S'\xedX\x810\xd2\x8ee?'
p1238
tp1239
Rp1240
ag403
(g407
S'\xedX\x810\xd2\x8ee?'
p1241
tp1242
Rp1243
ag403
(g407
S'\xedX\x810\xd2\x8ee?'
p1244
tp1245
Rp1246
ag403
(g407
S'\xedX\x810\xd2\x8ee?'
p1247
tp1248
Rp1249
ag403
(g407
S'\xedX\x810\xd2\x8ee?'
p1250
tp1251
Rp1252
ag403
(g407
S'\xedX\x810\xd2\x8ee?'
p1253
tp1254
Rp1255
ag403
(g407
S'\xedX\x810\xd2\x8ee?'
p1256
tp1257
Rp1258
ag403
(g407
S'\xedX\x810\xd2\x8ee?'
p1259
tp1260
Rp1261
ag403
(g407
S'\xedX\x810\xd2\x8ee?'
p1262
tp1263
Rp1264
ag403
(g407
S'\xedX\x810\xd2\x8ee?'
p1265
tp1266
Rp1267
ag403
(g407
S'\xedX\x810\xd2\x8ee?'
p1268
tp1269
Rp1270
ag403
(g407
S'\xedX\x810\xd2\x8ee?'
p1271
tp1272
Rp1273
ag403
(g407
S'\xedX\x810\xd2\x8ee?'
p1274
tp1275
Rp1276
ag403
(g407
S'\xedX\x810\xd2\x8ee?'
p1277
tp1278
Rp1279
ag403
(g407
S'\xedX\x810\xd2\x8ee?'
p1280
tp1281
Rp1282
ag403
(g407
S'\xedX\x810\xd2\x8ee?'
p1283
tp1284
Rp1285
ag403
(g407
S'\xedX\x810\xd2\x8ee?'
p1286
tp1287
Rp1288
ag403
(g407
S'\xedX\x810\xd2\x8ee?'
p1289
tp1290
Rp1291
ag403
(g407
S'\xedX\x810\xd2\x8ee?'
p1292
tp1293
Rp1294
ag403
(g407
S'\xedX\x810\xd2\x8ee?'
p1295
tp1296
Rp1297
ag403
(g407
S'\xedX\x810\xd2\x8ee?'
p1298
tp1299
Rp1300
ag403
(g407
S'\xedX\x810\xd2\x8ee?'
p1301
tp1302
Rp1303
ag403
(g407
S'\xedX\x810\xd2\x8ee?'
p1304
tp1305
Rp1306
ag403
(g407
S'\xedX\x810\xd2\x8ee?'
p1307
tp1308
Rp1309
ag403
(g407
S'\xedX\x810\xd2\x8ee?'
p1310
tp1311
Rp1312
ag403
(g407
S'\xedX\x810\xd2\x8ee?'
p1313
tp1314
Rp1315
ag403
(g407
S'\xedX\x810\xd2\x8ee?'
p1316
tp1317
Rp1318
ag403
(g407
S'\xedX\x810\xd2\x8ee?'
p1319
tp1320
Rp1321
ag403
(g407
S'\xedX\x810\xd2\x8ee?'
p1322
tp1323
Rp1324
ag403
(g407
S'\xedX\x810\xd2\x8ee?'
p1325
tp1326
Rp1327
ag403
(g407
S'\xedX\x810\xd2\x8ee?'
p1328
tp1329
Rp1330
ag403
(g407
S'\xedX\x810\xd2\x8ee?'
p1331
tp1332
Rp1333
ag403
(g407
S'\xedX\x810\xd2\x8ee?'
p1334
tp1335
Rp1336
ag403
(g407
S'\xedX\x810\xd2\x8ee?'
p1337
tp1338
Rp1339
ag403
(g407
S'\xedX\x810\xd2\x8ee?'
p1340
tp1341
Rp1342
ag403
(g407
S'\xedX\x810\xd2\x8ee?'
p1343
tp1344
Rp1345
ag403
(g407
S'\xedX\x810\xd2\x8ee?'
p1346
tp1347
Rp1348
ag403
(g407
S'\xedX\x810\xd2\x8ee?'
p1349
tp1350
Rp1351
ag403
(g407
S'\xedX\x810\xd2\x8ee?'
p1352
tp1353
Rp1354
ag403
(g407
S'\xedX\x810\xd2\x8ee?'
p1355
tp1356
Rp1357
ag403
(g407
S'\xedX\x810\xd2\x8ee?'
p1358
tp1359
Rp1360
ag403
(g407
S'\xedX\x810\xd2\x8ee?'
p1361
tp1362
Rp1363
ag403
(g407
S'\xedX\x810\xd2\x8ee?'
p1364
tp1365
Rp1366
ag403
(g407
S'\xedX\x810\xd2\x8ee?'
p1367
tp1368
Rp1369
ag403
(g407
S'\xedX\x810\xd2\x8ee?'
p1370
tp1371
Rp1372
ag403
(g407
S'\xedX\x810\xd2\x8ee?'
p1373
tp1374
Rp1375
ag403
(g407
S'\xedX\x810\xd2\x8ee?'
p1376
tp1377
Rp1378
ag403
(g407
S'\xedX\x810\xd2\x8ee?'
p1379
tp1380
Rp1381
ag403
(g407
S'\xedX\x810\xd2\x8ee?'
p1382
tp1383
Rp1384
ag403
(g407
S'\xedX\x810\xd2\x8ee?'
p1385
tp1386
Rp1387
ag403
(g407
S'\xedX\x810\xd2\x8ee?'
p1388
tp1389
Rp1390
ag403
(g407
S'\xedX\x810\xd2\x8ee?'
p1391
tp1392
Rp1393
ag403
(g407
S'\xedX\x810\xd2\x8ee?'
p1394
tp1395
Rp1396
ag403
(g407
S'\xedX\x810\xd2\x8ee?'
p1397
tp1398
Rp1399
ag403
(g407
S'\xedX\x810\xd2\x8ee?'
p1400
tp1401
Rp1402
ag403
(g407
S'\xedX\x810\xd2\x8ee?'
p1403
tp1404
Rp1405
ag403
(g407
S'\xedX\x810\xd2\x8ee?'
p1406
tp1407
Rp1408
ag403
(g407
S'\xedX\x810\xd2\x8ee?'
p1409
tp1410
Rp1411
ag403
(g407
S'\xedX\x810\xd2\x8ee?'
p1412
tp1413
Rp1414
ag403
(g407
S'\xedX\x810\xd2\x8ee?'
p1415
tp1416
Rp1417
ag403
(g407
S'\xedX\x810\xd2\x8ee?'
p1418
tp1419
Rp1420
ag403
(g407
S'\xedX\x810\xd2\x8ee?'
p1421
tp1422
Rp1423
ag403
(g407
S'\xedX\x810\xd2\x8ee?'
p1424
tp1425
Rp1426
ag403
(g407
S'\xedX\x810\xd2\x8ee?'
p1427
tp1428
Rp1429
ag403
(g407
S'\xedX\x810\xd2\x8ee?'
p1430
tp1431
Rp1432
ag403
(g407
S'\xedX\x810\xd2\x8ee?'
p1433
tp1434
Rp1435
ag403
(g407
S'\xedX\x810\xd2\x8ee?'
p1436
tp1437
Rp1438
ag403
(g407
S'\xedX\x810\xd2\x8ee?'
p1439
tp1440
Rp1441
ag403
(g407
S'\xedX\x810\xd2\x8ee?'
p1442
tp1443
Rp1444
ag403
(g407
S'\xedX\x810\xd2\x8ee?'
p1445
tp1446
Rp1447
ag403
(g407
S'\xedX\x810\xd2\x8ee?'
p1448
tp1449
Rp1450
ag403
(g407
S'\xedX\x810\xd2\x8ee?'
p1451
tp1452
Rp1453
ag403
(g407
S'\xedX\x810\xd2\x8ee?'
p1454
tp1455
Rp1456
ag403
(g407
S'\xedX\x810\xd2\x8ee?'
p1457
tp1458
Rp1459
ag403
(g407
S'\xedX\x810\xd2\x8ee?'
p1460
tp1461
Rp1462
ag403
(g407
S'\xedX\x810\xd2\x8ee?'
p1463
tp1464
Rp1465
ag403
(g407
S'\xedX\x810\xd2\x8ee?'
p1466
tp1467
Rp1468
ag403
(g407
S'\xedX\x810\xd2\x8ee?'
p1469
tp1470
Rp1471
ag403
(g407
S'\xedX\x810\xd2\x8ee?'
p1472
tp1473
Rp1474
ag403
(g407
S'\xedX\x810\xd2\x8ee?'
p1475
tp1476
Rp1477
ag403
(g407
S'\xedX\x810\xd2\x8ee?'
p1478
tp1479
Rp1480
ag403
(g407
S'\xedX\x810\xd2\x8ee?'
p1481
tp1482
Rp1483
ag403
(g407
S'\xedX\x810\xd2\x8ee?'
p1484
tp1485
Rp1486
ag403
(g407
S'\xedX\x810\xd2\x8ee?'
p1487
tp1488
Rp1489
ag403
(g407
S'\xedX\x810\xd2\x8ee?'
p1490
tp1491
Rp1492
ag403
(g407
S'\xedX\x810\xd2\x8ee?'
p1493
tp1494
Rp1495
ag403
(g407
S'\xedX\x810\xd2\x8ee?'
p1496
tp1497
Rp1498
ag403
(g407
S'\xedX\x810\xd2\x8ee?'
p1499
tp1500
Rp1501
ag403
(g407
S'\xedX\x810\xd2\x8ee?'
p1502
tp1503
Rp1504
ag403
(g407
S'\xedX\x810\xd2\x8ee?'
p1505
tp1506
Rp1507
ag403
(g407
S'\xedX\x810\xd2\x8ee?'
p1508
tp1509
Rp1510
ag403
(g407
S'\xedX\x810\xd2\x8ee?'
p1511
tp1512
Rp1513
ag403
(g407
S'\xedX\x810\xd2\x8ee?'
p1514
tp1515
Rp1516
ag403
(g407
S'\xedX\x810\xd2\x8ee?'
p1517
tp1518
Rp1519
ag403
(g407
S'\xedX\x810\xd2\x8ee?'
p1520
tp1521
Rp1522
ag403
(g407
S'\xedX\x810\xd2\x8ee?'
p1523
tp1524
Rp1525
ag403
(g407
S'\xedX\x810\xd2\x8ee?'
p1526
tp1527
Rp1528
ag403
(g407
S'\xedX\x810\xd2\x8ee?'
p1529
tp1530
Rp1531
ag403
(g407
S'\xedX\x810\xd2\x8ee?'
p1532
tp1533
Rp1534
ag403
(g407
S'\xedX\x810\xd2\x8ee?'
p1535
tp1536
Rp1537
ag403
(g407
S'\xedX\x810\xd2\x8ee?'
p1538
tp1539
Rp1540
ag403
(g407
S'\xedX\x810\xd2\x8ee?'
p1541
tp1542
Rp1543
ag403
(g407
S'\xedX\x810\xd2\x8ee?'
p1544
tp1545
Rp1546
ag403
(g407
S'\xedX\x810\xd2\x8ee?'
p1547
tp1548
Rp1549
atp1550
.